ccopy_reg
_reconstructor
p0
(csurprise.model_selection.search
GridSearchCV
p1
c__builtin__
object
p2
Ntp3
Rp4
(dp5
S'n_jobs'
p6
I1
sS'cv_results'
p7
(dp8
Vparam_name
p9
(lp10
S'pearson_baseline'
p11
ag11
asVsplit2_test_rmse
p12
cnumpy.core.multiarray
_reconstruct
p13
(cnumpy
ndarray
p14
(I0
tp15
S'b'
p16
tp17
Rp18
(I1
(I2
tp19
cnumpy
dtype
p20
(S'f8'
p21
I0
I1
tp22
Rp23
(I3
S'<'
p24
NNNI-1
I-1
I0
tp25
bI00
S'vT8\xd2\x9c\x1f\xf0?\x16$\xff\xc9w\xf2\xef?'
p26
tp27
bsVmean_test_time
p28
g13
(g14
(I0
tp29
g16
tp30
Rp31
(I1
(I2
tp32
g23
I00
S'ff\xe6v\x0e\xd5|@\xcd\xcc\xac\x87\xfeY\x87@'
p33
tp34
bsVsplit0_test_rmse
p35
g13
(g14
(I0
tp36
g16
tp37
Rp38
(I1
(I2
tp39
g23
I00
S'77\x93JI\x16\xf0?\xf0a3\xcaK\xd6\xef?'
p40
tp41
bsVstd_test_rmse
p42
g13
(g14
(I0
tp43
g16
tp44
Rp45
(I1
(I2
tp46
g23
I00
S'\x1dD\xa5\xc6h^R?re\xaeVnAV?'
p47
tp48
bsVmean_fit_time
p49
g13
(g14
(I0
tp50
g16
tp51
Rp52
(I1
(I2
tp53
g23
I00
S'\x00\x00\x80{2\xe9a@\xcd\xccLH\x06ib@'
p54
tp55
bsVsplit1_test_rmse
p56
g13
(g14
(I0
tp57
g16
tp58
Rp59
(I1
(I2
tp60
g23
I00
S'\xaf\xd8\x9bm\x1f#\xf0?n\xd8\xaa\x8b\x83\xf4\xef?'
p61
tp62
bsVparam_user_based
p63
(lp64
I00
aI00
asVsplit4_test_rmse
p65
g13
(g14
(I0
tp66
g16
tp67
Rp68
(I1
(I2
tp69
g23
I00
S'7\xaeIK\x95\x19\xf0?\xaf{[\xa9%\xe3\xef?'
p70
tp71
bsVparams
p72
(lp73
(dp74
S'k'
p75
I50
sS'user_based'
p76
I00
sS'name'
p77
g11
sS'n_epochs'
p78
I30
sa(dp79
g75
I300
sg76
I00
sg77
g11
sg78
I30
sasVstd_fit_time
p80
g13
(g14
(I0
tp81
g16
tp82
Rp83
(I1
(I2
tp84
g23
I00
S'\xa2~\xdb\xb9\xa4\xe2\xfa?m\xdb\xeb\x05\x82\xe9\x10@'
p85
tp86
bsVparam_k
p87
(lp88
I50
aI300
asVparam_n_epochs
p89
(lp90
I30
aI30
asVsplit3_test_rmse
p91
g13
(g14
(I0
tp92
g16
tp93
Rp94
(I1
(I2
tp95
g23
I00
S'\xc1\x03(^/\x1a\xf0?\xc9\xe2t@\xa1\xe3\xef?'
p96
tp97
bsVstd_test_time
p98
g13
(g14
(I0
tp99
g16
tp100
Rp101
(I1
(I2
tp102
g23
I00
S'\xdc\xf8\xf5E\xdaQ\x05@r\xdc\xc8\x1f\x1f\x81,@'
p103
tp104
bsVmean_test_rmse
p105
g13
(g14
(I0
tp106
g16
tp107
Rp108
(I1
(I2
tp109
g23
I00
S'w\x04\xc5p(\x1c\xf0?.\x8c\xef\x016\xe7\xef?'
p110
tp111
bsVrank_test_rmse
p112
g13
(g14
(I0
tp113
g16
tp114
Rp115
(I1
(I2
tp116
g20
(S'i8'
p117
I0
I1
tp118
Rp119
(I3
S'<'
p120
NNNI-1
I-1
I0
tp121
bI00
S'\x02\x00\x00\x00\x00\x00\x00\x00\x01\x00\x00\x00\x00\x00\x00\x00'
p122
tp123
bssS'best_params'
p124
(dp125
S'rmse'
p126
g79
ssS'param_combinations'
p127
g73
sS'measures'
p128
(lp129
g126
asS'refit'
p130
I00
sS'best_score'
p131
(dp132
g126
cnumpy.core.multiarray
scalar
p133
(g23
S'.\x8c\xef\x016\xe7\xef?'
p134
tp135
Rp136
ssS'return_train_measures'
p137
I00
sS'joblib_verbose'
p138
I0
sS'best_index'
p139
(dp140
g126
g133
(g119
S'\x01\x00\x00\x00\x00\x00\x00\x00'
p141
tp142
Rp143
ssS'pre_dispatch'
p144
V2*n_jobs
p145
sS'best_estimator'
p146
(dp147
g126
g0
(csurprise.prediction_algorithms.knns
KNNBaseline
p148
g2
Ntp149
Rp150
(dp151
S'verbose'
p152
I01
sg75
I300
sS'bsl_options'
p153
(dp154
sS'skip_train'
p155
I00
sS'min_k'
p156
I1
sS'sim_options'
p157
(dp158
Vuser_based
p159
I01
ssbssS'param_grid'
p160
(dp161
g75
(lp162
I50
aI300
asg78
(lp163
I30
asg77
(lp164
g11
asg76
(lp165
I00
assS'cv'
p166
I5
sS'algo_class'
p167
g148
sb.