ccopy_reg
_reconstructor
p0
(csurprise.model_selection.search
GridSearchCV
p1
c__builtin__
object
p2
Ntp3
Rp4
(dp5
S'n_jobs'
p6
I1
sS'cv_results'
p7
(dp8
Vparam_name
p9
(lp10
S'pearson_baseline'
p11
ag11
asVsplit2_test_rmse
p12
cnumpy.core.multiarray
_reconstruct
p13
(cnumpy
ndarray
p14
(I0
tp15
S'b'
p16
tp17
Rp18
(I1
(I2
tp19
cnumpy
dtype
p20
(S'f8'
p21
I0
I1
tp22
Rp23
(I3
S'<'
p24
NNNI-1
I-1
I0
tp25
bI00
S'%_\xc70U\xe4\xef?\xa5\xa3bW\xe1\xd1\xef?'
p26
tp27
bsVmean_test_time
p28
g13
(g14
(I0
tp29
g16
tp30
Rp31
(I1
(I2
tp32
g23
I00
S'\x9a\x99Y\xec\x88\x82\x82@33\xb3\x8b,\x9c\x8b@'
p33
tp34
bsVsplit0_test_rmse
p35
g13
(g14
(I0
tp36
g16
tp37
Rp38
(I1
(I2
tp39
g23
I00
S'\x9b\xb8\xfd\x06\xbb\xfa\xef?\x96\x11W\xa4\x0c\xea\xef?'
p40
tp41
bsVstd_test_rmse
p42
g13
(g14
(I0
tp43
g16
tp44
Rp45
(I1
(I2
tp46
g23
I00
S'\x81\x85Rq\xd7ER?\xf7\x1f)\xd6\xc0\x18S?'
p47
tp48
bsVmean_fit_time
p49
g13
(g14
(I0
tp50
g16
tp51
Rp52
(I1
(I2
tp53
g23
I00
S'333@\xc1Tb@33\xb3\xa8\x05Ab@'
p54
tp55
bsVsplit1_test_rmse
p56
g13
(g14
(I0
tp57
g16
tp58
Rp59
(I1
(I2
tp60
g23
I00
S'\x880\x85*\xd4\xf7\xef?\x9b\x9eI\xbb\xb3\xe4\xef?'
p61
tp62
bsVparam_user_based
p63
(lp64
I01
aI01
asVsplit4_test_rmse
p65
g13
(g14
(I0
tp66
g16
tp67
Rp68
(I1
(I2
tp69
g23
I00
S'\xc1\xdb\x8cc\xc2\xf9\xef?\x19\xed\xbc\xde3\xe8\xef?'
p70
tp71
bsVparams
p72
(lp73
(dp74
S'k'
p75
I150
sS'name'
p76
g11
sS'user_based'
p77
I01
sa(dp78
g75
I500
sg76
g11
sg77
I01
sasVstd_fit_time
p79
g13
(g14
(I0
tp80
g16
tp81
Rp82
(I1
(I2
tp83
g23
I00
S'\xf1\xb0\xf6|h\xf5\x07@\x18\xf6p\xbcz\xa1\xfd?'
p84
tp85
bsVparam_k
p86
(lp87
I150
aI500
asVsplit3_test_rmse
p88
g13
(g14
(I0
tp89
g16
tp90
Rp91
(I1
(I2
tp92
g23
I00
S'\x0c\xb6D\xc6\x17\xfe\xef?\x85p1\xb9\x8d\xec\xef?'
p93
tp94
bsVstd_test_time
p95
g13
(g14
(I0
tp96
g16
tp97
Rp98
(I1
(I2
tp99
g23
I00
S'\x7f\xe7+\xda\x86\xfd\x02@\\\r\xcd\xa6\xb8\xec\x1e@'
p100
tp101
bsVmean_test_rmse
p102
g13
(g14
(I0
tp103
g16
tp104
Rp105
(I1
(I2
tp106
g23
I00
S'\x05\x92\x05\x1c&\xf6\xef?J\xf0\xc9\x0fG\xe4\xef?'
p107
tp108
bsVrank_test_rmse
p109
g13
(g14
(I0
tp110
g16
tp111
Rp112
(I1
(I2
tp113
g20
(S'i8'
p114
I0
I1
tp115
Rp116
(I3
S'<'
p117
NNNI-1
I-1
I0
tp118
bI00
S'\x02\x00\x00\x00\x00\x00\x00\x00\x01\x00\x00\x00\x00\x00\x00\x00'
p119
tp120
bssS'best_params'
p121
(dp122
S'rmse'
p123
g78
ssS'param_combinations'
p124
g73
sS'measures'
p125
(lp126
g123
asS'refit'
p127
I00
sS'best_score'
p128
(dp129
g123
cnumpy.core.multiarray
scalar
p130
(g23
S'J\xf0\xc9\x0fG\xe4\xef?'
p131
tp132
Rp133
ssS'return_train_measures'
p134
I00
sS'joblib_verbose'
p135
I0
sS'best_index'
p136
(dp137
g123
g130
(g116
S'\x01\x00\x00\x00\x00\x00\x00\x00'
p138
tp139
Rp140
ssS'pre_dispatch'
p141
V2*n_jobs
p142
sS'best_estimator'
p143
(dp144
g123
g0
(csurprise.prediction_algorithms.knns
KNNBaseline
p145
g2
Ntp146
Rp147
(dp148
S'verbose'
p149
I01
sg75
I500
sS'bsl_options'
p150
(dp151
sS'skip_train'
p152
I00
sS'min_k'
p153
I1
sS'sim_options'
p154
(dp155
Vuser_based
p156
I01
ssbssS'param_grid'
p157
(dp158
g75
(lp159
I150
aI500
asg76
(lp160
g11
asg77
(lp161
I01
assS'cv'
p162
I5
sS'algo_class'
p163
g145
sb.