ccopy_reg
_reconstructor
p0
(csurprise.model_selection.search
GridSearchCV
p1
c__builtin__
object
p2
Ntp3
Rp4
(dp5
S'n_jobs'
p6
I1
sS'cv_results'
p7
(dp8
Vparam_name
p9
(lp10
S'pearson_baseline'
p11
ag11
asVsplit2_test_rmse
p12
cnumpy.core.multiarray
_reconstruct
p13
(cnumpy
ndarray
p14
(I0
tp15
S'b'
p16
tp17
Rp18
(I1
(I2
tp19
cnumpy
dtype
p20
(S'f8'
p21
I0
I1
tp22
Rp23
(I3
S'<'
p24
NNNI-1
I-1
I0
tp25
bI00
S'[\xfb\xd8=\xf1 \xf0?B\xfbC\xce\x15\xef\xef?'
p26
tp27
bsVmean_test_time
p28
g13
(g14
(I0
tp29
g16
tp30
Rp31
(I1
(I2
tp32
g23
I00
S'ff\xe6\x12\xfdG}@\x00\x00`\xf73\xbc\x86@'
p33
tp34
bsVsplit0_test_rmse
p35
g13
(g14
(I0
tp36
g16
tp37
Rp38
(I1
(I2
tp39
g23
I00
S'm\xb8o\r\xf6\x1a\xf0?1\xcf\x0f\xe7\xdc\xe6\xef?'
p40
tp41
bsVstd_test_rmse
p42
g13
(g14
(I0
tp43
g16
tp44
Rp45
(I1
(I2
tp46
g23
I00
S'\xdf\x90\xc8\xa4>xT?\xa8x.n?\xc5Q?'
p47
tp48
bsVmean_fit_time
p49
g13
(g14
(I0
tp50
g16
tp51
Rp52
(I1
(I2
tp53
g23
I00
S'ff\xe6\xc2_\xd8a@ff\xe6\xf8\x98\xf5a@'
p54
tp55
bsVsplit1_test_rmse
p56
g13
(g14
(I0
tp57
g16
tp58
Rp59
(I1
(I2
tp60
g23
I00
S'\xd4F\xe5\x08\x05\x1f\xf0?\xf0\xb4%Hn\xe9\xef?'
p61
tp62
bsVparam_user_based
p63
(lp64
I01
aI01
asVsplit4_test_rmse
p65
g13
(g14
(I0
tp66
g16
tp67
Rp68
(I1
(I2
tp69
g23
I00
S'l\xb0\x1dTb\x1f\xf0?\xf5\x1a>\xd2{\xf0\xef?'
p70
tp71
bsVparams
p72
(lp73
(dp74
S'k'
p75
I50
sS'user_based'
p76
I01
sS'name'
p77
g11
sS'n_epochs'
p78
I30
sa(dp79
g75
I300
sg76
I01
sg77
g11
sg78
I30
sasVstd_fit_time
p80
g13
(g14
(I0
tp81
g16
tp82
Rp83
(I1
(I2
tp84
g23
I00
S'2\xa9\x9a6\xb48\n@,^H\xe96\xf2\x10@'
p85
tp86
bsVparam_k
p87
(lp88
I50
aI300
asVparam_n_epochs
p89
(lp90
I30
aI30
asVsplit3_test_rmse
p91
g13
(g14
(I0
tp92
g16
tp93
Rp94
(I1
(I2
tp95
g23
I00
S'\x86\x8d\x93o\xc6\x12\xf0?=|W\x0f\x97\xd7\xef?'
p96
tp97
bsVstd_test_time
p98
g13
(g14
(I0
tp99
g16
tp100
Rp101
(I1
(I2
tp102
g23
I00
S'K\xa1$\xe3&\x85-@\x051Y\xe57R9@'
p103
tp104
bsVmean_test_rmse
p105
g13
(g14
(I0
tp106
g16
tp107
Rp108
(I1
(I2
tp109
g23
I00
S'\xe9\xa4,k7\x1c\xf0?\xeaji\xf9\xe3\xe7\xef?'
p110
tp111
bsVrank_test_rmse
p112
g13
(g14
(I0
tp113
g16
tp114
Rp115
(I1
(I2
tp116
g20
(S'i8'
p117
I0
I1
tp118
Rp119
(I3
S'<'
p120
NNNI-1
I-1
I0
tp121
bI00
S'\x02\x00\x00\x00\x00\x00\x00\x00\x01\x00\x00\x00\x00\x00\x00\x00'
p122
tp123
bssS'best_params'
p124
(dp125
S'rmse'
p126
g79
ssS'param_combinations'
p127
g73
sS'measures'
p128
(lp129
g126
asS'refit'
p130
I00
sS'best_score'
p131
(dp132
g126
cnumpy.core.multiarray
scalar
p133
(g23
S'\xeaji\xf9\xe3\xe7\xef?'
p134
tp135
Rp136
ssS'return_train_measures'
p137
I00
sS'joblib_verbose'
p138
I0
sS'best_index'
p139
(dp140
g126
g133
(g119
S'\x01\x00\x00\x00\x00\x00\x00\x00'
p141
tp142
Rp143
ssS'pre_dispatch'
p144
V2*n_jobs
p145
sS'best_estimator'
p146
(dp147
g126
g0
(csurprise.prediction_algorithms.knns
KNNBaseline
p148
g2
Ntp149
Rp150
(dp151
S'verbose'
p152
I01
sg75
I300
sS'bsl_options'
p153
(dp154
sS'skip_train'
p155
I00
sS'min_k'
p156
I1
sS'sim_options'
p157
(dp158
Vuser_based
p159
I01
ssbssS'param_grid'
p160
(dp161
g75
(lp162
I50
aI300
asg78
(lp163
I30
asg77
(lp164
g11
asg76
(lp165
I01
assS'cv'
p166
I5
sS'algo_class'
p167
g148
sb.